target datalayout = "e-m:e-p270:32:32-p271:32:32-p272:64:64-i64:64-i128:128-f80:128-n8:16:32:64-S128"
target triple = "x86_64-pc-linux-gnu"

%"class.pxrInternal_v0_24__pxrReserved__::GfDualQuath" = type { %"class.pxrInternal_v0_24__pxrReserved__::GfQuath", %"class.pxrInternal_v0_24__pxrReserved__::GfQuath" }
%"class.pxrInternal_v0_24__pxrReserved__::GfQuath" = type { %"class.pxrInternal_v0_24__pxrReserved__::GfVec3h", %"class.pxrInternal_v0_24__pxrReserved__::pxr_half::half" }
%"class.pxrInternal_v0_24__pxrReserved__::GfVec3h" = type { [3 x %"class.pxrInternal_v0_24__pxrReserved__::pxr_half::half"] }
%"class.pxrInternal_v0_24__pxrReserved__::pxr_half::half" = type { i16 }
%"struct.std::pair" = type { %"class.pxrInternal_v0_24__pxrReserved__::pxr_half::half", %"class.pxrInternal_v0_24__pxrReserved__::pxr_half::half" }

; Function Attrs: mustprogress uwtable
define { i64, i64 } @_ZNK32pxrInternal_v0_24__pxrReserved__11GfDualQuath13GetNormalizedENS_8pxr_half4halfE(ptr noundef nonnull align 2 dereferenceable(16) %0, i16 %1) #0 align 2 {
  %3 = alloca %"class.pxrInternal_v0_24__pxrReserved__::GfDualQuath", align 2
  %4 = alloca %"class.pxrInternal_v0_24__pxrReserved__::pxr_half::half", align 2
  %5 = alloca ptr, align 8
  %6 = alloca %"class.pxrInternal_v0_24__pxrReserved__::pxr_half::half", align 2
  %7 = alloca %"struct.std::pair", align 2
  %8 = getelementptr inbounds nuw %"class.pxrInternal_v0_24__pxrReserved__::pxr_half::half", ptr %4, i32 0, i32 0
  store i16 %1, ptr %8, align 2
  store ptr %0, ptr %5, align 8
  %9 = load ptr, ptr %5, align 8
  call void @llvm.memcpy.p0.p0.i64(ptr align 2 %3, ptr align 2 %9, i64 16, i1 false)
  call void @llvm.memcpy.p0.p0.i64(ptr align 2 %6, ptr align 2 %4, i64 2, i1 false)
  %10 = getelementptr inbounds nuw %"class.pxrInternal_v0_24__pxrReserved__::pxr_half::half", ptr %6, i32 0, i32 0
  %11 = load i16, ptr %10, align 2
  %12 = call i32 @_ZN32pxrInternal_v0_24__pxrReserved__11GfDualQuath9NormalizeENS_8pxr_half4halfE(ptr noundef nonnull align 2 dereferenceable(16) %3, i16 %11)
  store i32 %12, ptr %7, align 2
  %13 = load { i64, i64 }, ptr %3, align 2
  ret { i64, i64 } %13
}