; Function Attrs: mustprogress uwtable
define { i64, i64 } @_ZNK32pxrInternal_v0_24__pxrReserved__11GfDualQuath13GetNormalizedENS_8pxr_half4halfE(ptr nocapture noundef nonnull readonly align 2 dereferenceable(16) %0, i16 %1) local_unnamed_addr #0 align 2 {
  %3 = alloca %"class.pxrInternal_v0_24__pxrReserved__::GfDualQuath", align 8
  call void @llvm.memcpy.p0.p0.i64(ptr noundef nonnull align 8 dereferenceable(16) %3, ptr noundef nonnull align 2 dereferenceable(16) %0, i64 16, i1 false)
  %4 = call i32 @_ZN32pxrInternal_v0_24__pxrReserved__11GfDualQuath9NormalizeENS_8pxr_half4halfE(ptr noundef nonnull align 2 dereferenceable(16) %3, i16 %1)
  %.fca.0.load = load i64, ptr %3, align 8
  %.fca.0.insert = insertvalue { i64, i64 } poison, i64 %.fca.0.load, 0
  %.fca.1.gep = getelementptr inbounds i8, ptr %3, i64 8
  %.fca.1.load = load i64, ptr %.fca.1.gep, align 8
  %.fca.1.insert = insertvalue { i64, i64 } %.fca.0.insert, i64 %.fca.1.load, 1
  ret { i64, i64 } %.fca.1.insert
}